target datalayout = "e-m:e-p270:32:32-p271:32:32-p272:64:64-i64:64-i128:128-f80:128-n8:16:32:64-S128"
target triple = "x86_64-pc-linux-gnu"

%"class.cv::Mat" = type { i32, i32, i32, i32, ptr, ptr, ptr, ptr, ptr, ptr, %"struct.cv::MatSize", %"struct.cv::MatStep" }
%"struct.cv::MatSize" = type { ptr }
%"struct.cv::MatStep" = type { ptr, [2 x i64] }
%"class.cv::ximgproc::segmentation::SelectiveSearchSegmentationStrategy" = type { %"class.cv::Algorithm" }
%"class.cv::Algorithm" = type { ptr }
%"class.std::__cxx11::basic_string" = type { %"struct.std::__cxx11::basic_string<char>::_Alloc_hider", i64, %union.anon }
%"struct.std::__cxx11::basic_string<char>::_Alloc_hider" = type { ptr }
%union.anon = type { i64, [8 x i8] }
%"class.cv::ximgproc::segmentation::SelectiveSearchSegmentationStrategySizeImpl" = type <{ %"class.cv::ximgproc::segmentation::SelectiveSearchSegmentationStrategySize", %"class.std::__cxx11::basic_string", %"class.cv::Mat", i32, [4 x i8] }>
%"class.cv::ximgproc::segmentation::SelectiveSearchSegmentationStrategySize" = type { %"class.cv::ximgproc::segmentation::SelectiveSearchSegmentationStrategy" }

; Function Attrs: inlinehint mustprogress nounwind uwtable
define linkonce_odr hidden noundef zeroext i1 @_ZNK2cv3Mat12isContinuousEv(ptr noundef nonnull align 8 dereferenceable(96) %0) #8 comdat align 2 {
  %2 = alloca ptr, align 8
  store ptr %0, ptr %2, align 8, !tbaa !45
  %3 = load ptr, ptr %2, align 8
  %4 = getelementptr inbounds nuw %"class.cv::Mat", ptr %3, i32 0, i32 0
  %5 = load i32, ptr %4, align 8, !tbaa !49
  %6 = and i32 %5, 16384
  %7 = icmp ne i32 %6, 0
  ret i1 %7
}

; Function Attrs: inlinehint mustprogress nounwind uwtable
define linkonce_odr noundef nonnull align 4 dereferenceable(4) ptr @_ZSt3maxIfERKT_S2_S2_(ptr noundef nonnull align 4 dereferenceable(4) %0, ptr noundef nonnull align 4 dereferenceable(4) %1) #8 comdat {
  %3 = alloca ptr, align 8
  %4 = alloca ptr, align 8
  %5 = alloca ptr, align 8
  store ptr %0, ptr %4, align 8, !tbaa !28
  store ptr %1, ptr %5, align 8, !tbaa !28
  %6 = load ptr, ptr %4, align 8, !tbaa !28
  %7 = load float, ptr %6, align 4, !tbaa !33
  %8 = load ptr, ptr %5, align 8, !tbaa !28
  %9 = load float, ptr %8, align 4, !tbaa !33
  %10 = fcmp olt float %7, %9
  br i1 %10, label %11, label %13

11:                                               ; preds = %2
  %12 = load ptr, ptr %5, align 8, !tbaa !28
  store ptr %12, ptr %3, align 8
  br label %15

13:                                               ; preds = %2
  %14 = load ptr, ptr %4, align 8, !tbaa !28
  store ptr %14, ptr %3, align 8
  br label %15

15:                                               ; preds = %13, %11
  %16 = load ptr, ptr %3, align 8
  ret ptr %16
}

; Function Attrs: inlinehint mustprogress nounwind uwtable
define linkonce_odr noundef nonnull align 4 dereferenceable(4) ptr @_ZSt3minIfERKT_S2_S2_(ptr noundef nonnull align 4 dereferenceable(4) %0, ptr noundef nonnull align 4 dereferenceable(4) %1) #8 comdat {
  %3 = alloca ptr, align 8
  %4 = alloca ptr, align 8
  %5 = alloca ptr, align 8
  store ptr %0, ptr %4, align 8, !tbaa !28
  store ptr %1, ptr %5, align 8, !tbaa !28
  %6 = load ptr, ptr %5, align 8, !tbaa !28
  %7 = load float, ptr %6, align 4, !tbaa !33
  %8 = load ptr, ptr %4, align 8, !tbaa !28
  %9 = load float, ptr %8, align 4, !tbaa !33
  %10 = fcmp olt float %7, %9
  br i1 %10, label %11, label %13

11:                                               ; preds = %2
  %12 = load ptr, ptr %5, align 8, !tbaa !28
  store ptr %12, ptr %3, align 8
  br label %15

13:                                               ; preds = %2
  %14 = load ptr, ptr %4, align 8, !tbaa !28
  store ptr %14, ptr %3, align 8
  br label %15

15:                                               ; preds = %13, %11
  %16 = load ptr, ptr %3, align 8
  ret ptr %16
}

; Function Attrs: inlinehint mustprogress uwtable
define linkonce_odr hidden noundef nonnull align 4 dereferenceable(4) ptr @_ZN2cv3Mat2atIiEERT_i(ptr noundef nonnull align 8 dereferenceable(96) %0, i32 noundef %1) #6 comdat align 2 {
  %3 = alloca ptr, align 8
  %4 = alloca ptr, align 8
  %5 = alloca i32, align 4
  %6 = alloca i32, align 4
  %7 = alloca i32, align 4
  store ptr %0, ptr %4, align 8, !tbaa !45
  store i32 %1, ptr %5, align 4, !tbaa !10
  %8 = load ptr, ptr %4, align 8
  %9 = call noundef zeroext i1 @_ZNK2cv3Mat12isContinuousEv(ptr noundef nonnull align 8 dereferenceable(96) %8)
  br i1 %9, label %17, label %10

10:                                               ; preds = %2
  %11 = getelementptr inbounds nuw %"class.cv::Mat", ptr %8, i32 0, i32 10
  %12 = getelementptr inbounds nuw %"struct.cv::MatSize", ptr %11, i32 0, i32 0
  %13 = load ptr, ptr %12, align 8, !tbaa !70
  %14 = getelementptr inbounds i32, ptr %13, i64 0
  %15 = load i32, ptr %14, align 4, !tbaa !10
  %16 = icmp eq i32 %15, 1
  br i1 %16, label %17, label %23

17:                                               ; preds = %10, %2
  %18 = getelementptr inbounds nuw %"class.cv::Mat", ptr %8, i32 0, i32 4
  %19 = load ptr, ptr %18, align 8, !tbaa !62
  %20 = load i32, ptr %5, align 4, !tbaa !10
  %21 = sext i32 %20 to i64
  %22 = getelementptr inbounds i32, ptr %19, i64 %21
  store ptr %22, ptr %3, align 8
  br label %67

23:                                               ; preds = %10
  %24 = getelementptr inbounds nuw %"class.cv::Mat", ptr %8, i32 0, i32 10
  %25 = getelementptr inbounds nuw %"struct.cv::MatSize", ptr %24, i32 0, i32 0
  %26 = load ptr, ptr %25, align 8, !tbaa !70
  %27 = getelementptr inbounds i32, ptr %26, i64 1
  %28 = load i32, ptr %27, align 4, !tbaa !10
  %29 = icmp eq i32 %28, 1
  br i1 %29, label %30, label %42

30:                                               ; preds = %23
  %31 = getelementptr inbounds nuw %"class.cv::Mat", ptr %8, i32 0, i32 4
  %32 = load ptr, ptr %31, align 8, !tbaa !62
  %33 = getelementptr inbounds nuw %"class.cv::Mat", ptr %8, i32 0, i32 11
  %34 = getelementptr inbounds nuw %"struct.cv::MatStep", ptr %33, i32 0, i32 0
  %35 = load ptr, ptr %34, align 8, !tbaa !63
  %36 = getelementptr inbounds i64, ptr %35, i64 0
  %37 = load i64, ptr %36, align 8, !tbaa !64
  %38 = load i32, ptr %5, align 4, !tbaa !10
  %39 = sext i32 %38 to i64
  %40 = mul i64 %37, %39
  %41 = getelementptr inbounds nuw i8, ptr %32, i64 %40
  store ptr %41, ptr %3, align 8
  br label %67

42:                                               ; preds = %23
  call void @llvm.lifetime.start.p0(i64 4, ptr %6) #3
  %43 = load i32, ptr %5, align 4, !tbaa !10
  %44 = getelementptr inbounds nuw %"class.cv::Mat", ptr %8, i32 0, i32 3
  %45 = load i32, ptr %44, align 4, !tbaa !71
  %46 = sdiv i32 %43, %45
  store i32 %46, ptr %6, align 4, !tbaa !10
  call void @llvm.lifetime.start.p0(i64 4, ptr %7) #3
  %47 = load i32, ptr %5, align 4, !tbaa !10
  %48 = load i32, ptr %6, align 4, !tbaa !10
  %49 = getelementptr inbounds nuw %"class.cv::Mat", ptr %8, i32 0, i32 3
  %50 = load i32, ptr %49, align 4, !tbaa !71
  %51 = mul nsw i32 %48, %50
  %52 = sub nsw i32 %47, %51
  store i32 %52, ptr %7, align 4, !tbaa !10
  %53 = getelementptr inbounds nuw %"class.cv::Mat", ptr %8, i32 0, i32 4
  %54 = load ptr, ptr %53, align 8, !tbaa !62
  %55 = getelementptr inbounds nuw %"class.cv::Mat", ptr %8, i32 0, i32 11
  %56 = getelementptr inbounds nuw %"struct.cv::MatStep", ptr %55, i32 0, i32 0
  %57 = load ptr, ptr %56, align 8, !tbaa !63
  %58 = getelementptr inbounds i64, ptr %57, i64 0
  %59 = load i64, ptr %58, align 8, !tbaa !64
  %60 = load i32, ptr %6, align 4, !tbaa !10
  %61 = sext i32 %60 to i64
  %62 = mul i64 %59, %61
  %63 = getelementptr inbounds nuw i8, ptr %54, i64 %62
  %64 = load i32, ptr %7, align 4, !tbaa !10
  %65 = sext i32 %64 to i64
  %66 = getelementptr inbounds i32, ptr %63, i64 %65
  store ptr %66, ptr %3, align 8
  call void @llvm.lifetime.end.p0(i64 4, ptr %7) #3
  call void @llvm.lifetime.end.p0(i64 4, ptr %6) #3
  br label %67

67:                                               ; preds = %42, %30, %17
  %68 = load ptr, ptr %3, align 8
  ret ptr %68
}

; Function Attrs: mustprogress uwtable
define hidden noundef float @_ZN2cv8ximgproc12segmentation43SelectiveSearchSegmentationStrategySizeImpl3getEii(ptr noundef nonnull align 8 dereferenceable(144) %0, i32 noundef %1, i32 noundef %2) unnamed_addr #4 align 2 {
  %4 = alloca ptr, align 8
  %5 = alloca i32, align 4
  %6 = alloca i32, align 4
  %7 = alloca i32, align 4
  %8 = alloca i32, align 4
  %9 = alloca float, align 4
  %10 = alloca float, align 4
  %11 = alloca float, align 4
  store ptr %0, ptr %4, align 8, !tbaa !114
  store i32 %1, ptr %5, align 4, !tbaa !10
  store i32 %2, ptr %6, align 4, !tbaa !10
  %12 = load ptr, ptr %4, align 8
  call void @llvm.lifetime.start.p0(i64 4, ptr %7) #3
  %13 = getelementptr inbounds nuw %"class.cv::ximgproc::segmentation::SelectiveSearchSegmentationStrategySizeImpl", ptr %12, i32 0, i32 2
  %14 = load i32, ptr %5, align 4, !tbaa !10
  %15 = call noundef nonnull align 4 dereferenceable(4) ptr @_ZN2cv3Mat2atIiEERT_i(ptr noundef nonnull align 8 dereferenceable(96) %13, i32 noundef %14)
  %16 = load i32, ptr %15, align 4, !tbaa !10
  store i32 %16, ptr %7, align 4, !tbaa !10
  call void @llvm.lifetime.start.p0(i64 4, ptr %8) #3
  %17 = getelementptr inbounds nuw %"class.cv::ximgproc::segmentation::SelectiveSearchSegmentationStrategySizeImpl", ptr %12, i32 0, i32 2
  %18 = load i32, ptr %6, align 4, !tbaa !10
  %19 = call noundef nonnull align 4 dereferenceable(4) ptr @_ZN2cv3Mat2atIiEERT_i(ptr noundef nonnull align 8 dereferenceable(96) %17, i32 noundef %18)
  %20 = load i32, ptr %19, align 4, !tbaa !10
  store i32 %20, ptr %8, align 4, !tbaa !10
  call void @llvm.lifetime.start.p0(i64 4, ptr %9) #3
  %21 = load i32, ptr %7, align 4, !tbaa !10
  %22 = load i32, ptr %8, align 4, !tbaa !10
  %23 = add nsw i32 %21, %22
  %24 = sitofp i32 %23 to float
  %25 = getelementptr inbounds nuw %"class.cv::ximgproc::segmentation::SelectiveSearchSegmentationStrategySizeImpl", ptr %12, i32 0, i32 3
  %26 = load i32, ptr %25, align 8, !tbaa !117
  %27 = sitofp i32 %26 to float
  %28 = fdiv float %24, %27
  %29 = fsub float 1.000000e+00, %28
  store float %29, ptr %9, align 4, !tbaa !33
  call void @llvm.lifetime.start.p0(i64 4, ptr %10) #3
  store float 1.000000e+00, ptr %10, align 4, !tbaa !33
  %30 = call noundef nonnull align 4 dereferenceable(4) ptr @_ZSt3minIfERKT_S2_S2_(ptr noundef nonnull align 4 dereferenceable(4) %9, ptr noundef nonnull align 4 dereferenceable(4) %10)
  call void @llvm.lifetime.start.p0(i64 4, ptr %11) #3
  store float 0.000000e+00, ptr %11, align 4, !tbaa !33
  %31 = call noundef nonnull align 4 dereferenceable(4) ptr @_ZSt3maxIfERKT_S2_S2_(ptr noundef nonnull align 4 dereferenceable(4) %30, ptr noundef nonnull align 4 dereferenceable(4) %11)
  %32 = load float, ptr %31, align 4, !tbaa !33
  call void @llvm.lifetime.end.p0(i64 4, ptr %11) #3
  call void @llvm.lifetime.end.p0(i64 4, ptr %10) #3
  call void @llvm.lifetime.end.p0(i64 4, ptr %9) #3
  call void @llvm.lifetime.end.p0(i64 4, ptr %8) #3
  call void @llvm.lifetime.end.p0(i64 4, ptr %7) #3
  ret float %32
}