; Function Attrs: mustprogress nofree norecurse nosync nounwind willreturn memory(read, inaccessiblemem: none) uwtable
define hidden noundef float @_ZN2cv8ximgproc12segmentation43SelectiveSearchSegmentationStrategySizeImpl3getEii(ptr noundef nonnull readonly align 8 captures(none) dereferenceable(144) %0, i32 noundef %1, i32 noundef %2) unnamed_addr #8 align 2 {
  %4 = getelementptr inbounds nuw i8, ptr %0, i64 40
  %5 = load i32, ptr %4, align 8, !tbaa !27
  %6 = and i32 %5, 16384
  %.not.i = icmp eq i32 %6, 0
  br i1 %.not.i, label %7, label %_ZN2cv3Mat2atIiEERT_i.exit

7:                                                ; preds = %3
  %8 = getelementptr inbounds nuw i8, ptr %0, i64 104
  %9 = load ptr, ptr %8, align 8, !tbaa !72
  %10 = load i32, ptr %9, align 4, !tbaa !22
  %11 = icmp eq i32 %10, 1
  br i1 %11, label %_ZN2cv3Mat2atIiEERT_i.exit, label %12

12:                                               ; preds = %7
  %13 = getelementptr inbounds nuw i8, ptr %9, i64 4
  %14 = load i32, ptr %13, align 4, !tbaa !22
  %15 = icmp eq i32 %14, 1
  br i1 %15, label %16, label %25

16:                                               ; preds = %12
  %17 = getelementptr inbounds nuw i8, ptr %0, i64 56
  %18 = load ptr, ptr %17, align 8, !tbaa !55
  %19 = getelementptr inbounds nuw i8, ptr %0, i64 112
  %20 = load ptr, ptr %19, align 8, !tbaa !56
  %21 = load i64, ptr %20, align 8, !tbaa !57
  %22 = sext i32 %1 to i64
  %23 = mul i64 %21, %22
  %24 = getelementptr inbounds nuw i8, ptr %18, i64 %23
  br label %47

25:                                               ; preds = %12
  %26 = getelementptr inbounds nuw i8, ptr %0, i64 52
  %27 = load i32, ptr %26, align 4, !tbaa !73
  %28 = sdiv i32 %1, %27
  %29 = mul nsw i32 %28, %27
  %.recomposed = srem i32 %1, %27
  %30 = getelementptr inbounds nuw i8, ptr %0, i64 56
  %31 = load ptr, ptr %30, align 8, !tbaa !55
  %32 = getelementptr inbounds nuw i8, ptr %0, i64 112
  %33 = load ptr, ptr %32, align 8, !tbaa !56
  %34 = load i64, ptr %33, align 8, !tbaa !57
  %35 = sext i32 %28 to i64
  %36 = mul i64 %34, %35
  %37 = getelementptr inbounds nuw i8, ptr %31, i64 %36
  %38 = sext i32 %.recomposed to i64
  %39 = getelementptr inbounds i32, ptr %37, i64 %38
  br label %47

_ZN2cv3Mat2atIiEERT_i.exit:                       ; preds = %7, %3
  %40 = getelementptr inbounds nuw i8, ptr %0, i64 56
  %41 = load ptr, ptr %40, align 8, !tbaa !55
  %42 = sext i32 %1 to i64
  %43 = getelementptr inbounds i32, ptr %41, i64 %42
  %44 = load i32, ptr %43, align 4, !tbaa !22
  %45 = sext i32 %2 to i64
  %46 = getelementptr inbounds i32, ptr %41, i64 %45
  br label %_ZN2cv3Mat2atIiEERT_i.exit6

47:                                               ; preds = %25, %16
  %.ph = phi ptr [ %18, %16 ], [ %31, %25 ]
  %.in.ph = phi ptr [ %24, %16 ], [ %39, %25 ]
  %48 = load i32, ptr %.in.ph, align 4, !tbaa !22
  %49 = getelementptr inbounds nuw i8, ptr %9, i64 4
  %50 = load i32, ptr %49, align 4, !tbaa !22
  %51 = icmp eq i32 %50, 1
  br i1 %51, label %52, label %59

52:                                               ; preds = %47
  %53 = getelementptr inbounds nuw i8, ptr %0, i64 112
  %54 = load ptr, ptr %53, align 8, !tbaa !56
  %55 = load i64, ptr %54, align 8, !tbaa !57
  %56 = sext i32 %2 to i64
  %57 = mul i64 %55, %56
  %58 = getelementptr inbounds nuw i8, ptr %.ph, i64 %57
  br label %_ZN2cv3Mat2atIiEERT_i.exit6

59:                                               ; preds = %47
  %60 = getelementptr inbounds nuw i8, ptr %0, i64 52
  %61 = load i32, ptr %60, align 4, !tbaa !73
  %62 = sdiv i32 %2, %61
  %63 = mul nsw i32 %62, %61
  %.recomposed16 = srem i32 %2, %61
  %64 = getelementptr inbounds nuw i8, ptr %0, i64 112
  %65 = load ptr, ptr %64, align 8, !tbaa !56
  %66 = load i64, ptr %65, align 8, !tbaa !57
  %67 = sext i32 %62 to i64
  %68 = mul i64 %66, %67
  %69 = getelementptr inbounds nuw i8, ptr %.ph, i64 %68
  %70 = sext i32 %.recomposed16 to i64
  %71 = getelementptr inbounds i32, ptr %69, i64 %70
  br label %_ZN2cv3Mat2atIiEERT_i.exit6

_ZN2cv3Mat2atIiEERT_i.exit6:                      ; preds = %_ZN2cv3Mat2atIiEERT_i.exit, %52, %59
  %72 = phi i32 [ %44, %_ZN2cv3Mat2atIiEERT_i.exit ], [ %48, %52 ], [ %48, %59 ]
  %.0.i5 = phi ptr [ %46, %_ZN2cv3Mat2atIiEERT_i.exit ], [ %58, %52 ], [ %71, %59 ]
  %73 = load i32, ptr %.0.i5, align 4, !tbaa !22
  %74 = add nsw i32 %73, %72
  %75 = sitofp i32 %74 to float
  %76 = getelementptr inbounds nuw i8, ptr %0, i64 136
  %77 = load i32, ptr %76, align 8, !tbaa !148
  %78 = sitofp i32 %77 to float
  %79 = fdiv float %75, %78
  %80 = fsub float 1.000000e+00, %79
  %81 = fcmp ogt float %80, 1.000000e+00
  %.sroa.speculated8 = select i1 %81, float 1.000000e+00, float %80
  %82 = fcmp olt float %.sroa.speculated8, 0.000000e+00
  %.sroa.speculated = select i1 %82, float 0.000000e+00, float %.sroa.speculated8
  ret float %.sroa.speculated
}